target datalayout = "e-m:e-p270:32:32-p271:32:32-p272:64:64-i64:64-i128:128-f80:128-n8:16:32:64-S128"
target triple = "x86_64-pc-linux-gnu"

%struct._tvbparse_wanted_t = type { i32, ptr, %union.anon, i32, i32, i32, ptr, ptr, ptr }
%union.anon = type { %struct.anon.2 }
%struct.anon.2 = type { ptr, ptr, ptr }

; Function Attrs: alwaysinline nounwind
define internal ptr @memset.inline(ptr %0, i32 %1, i64 %2) #4 {
  %4 = alloca ptr, align 8
  %5 = alloca i32, align 4
  %6 = alloca i64, align 8
  store ptr %0, ptr %4, align 8
  store i32 %1, ptr %5, align 4
  store i64 %2, ptr %6, align 8
  %7 = load ptr, ptr %4, align 8
  %8 = load i32, ptr %5, align 4
  %9 = load i64, ptr %6, align 8
  %10 = load ptr, ptr %4, align 8
  %11 = call i64 @llvm.objectsize.i64.p0(ptr %10, i1 false, i1 true, i1 true)
  %12 = call ptr @__memset_chk(ptr noundef %7, i32 noundef %8, i64 noundef %9, i64 noundef %11) #11
  ret ptr %12
}

; Function Attrs: null_pointer_is_valid sspstrong uwtable
define ptr @tvbparse_not_chars(i32 noundef %0, i32 noundef %1, i32 noundef %2, ptr noundef %3, ptr noundef %4, ptr noundef %5, ptr noundef %6) #0 {
  %8 = alloca i32, align 4
  %9 = alloca i32, align 4
  %10 = alloca i32, align 4
  %11 = alloca ptr, align 8
  %12 = alloca ptr, align 8
  %13 = alloca ptr, align 8
  %14 = alloca ptr, align 8
  %15 = alloca ptr, align 8
  %16 = alloca ptr, align 8
  %17 = alloca i64, align 8
  store i32 %0, ptr %8, align 4
  store i32 %1, ptr %9, align 4
  store i32 %2, ptr %10, align 4
  store ptr %3, ptr %11, align 8
  store ptr %4, ptr %12, align 8
  store ptr %5, ptr %13, align 8
  store ptr %6, ptr %14, align 8
  call void @llvm.lifetime.start.p0(i64 8, ptr %15) #11
  %18 = call ptr @wmem_epan_scope()
  %19 = call noalias ptr @wmem_alloc0(ptr noundef %18, i64 noundef 80) #12
  store ptr %19, ptr %15, align 8
  call void @llvm.lifetime.start.p0(i64 8, ptr %16) #11
  call void @llvm.lifetime.start.p0(i64 8, ptr %17) #11
  %20 = call ptr @wmem_epan_scope()
  %21 = call noalias ptr @wmem_alloc(ptr noundef %20, i64 noundef 256) #12
  store ptr %21, ptr %16, align 8
  %22 = load ptr, ptr %16, align 8
  %23 = call ptr @memset.inline(ptr noundef %22, i32 noundef 255, i64 noundef 256) #11
  store i64 0, ptr %17, align 8
  br label %24

24:                                               ; preds = %39, %7
  %25 = load ptr, ptr %11, align 8
  %26 = load i64, ptr %17, align 8
  %27 = getelementptr i8, ptr %25, i64 %26
  %28 = load i8, ptr %27, align 1
  %29 = icmp ne i8 %28, 0
  br i1 %29, label %30, label %42

30:                                               ; preds = %24
  %31 = load ptr, ptr %16, align 8
  %32 = load ptr, ptr %11, align 8
  %33 = load i64, ptr %17, align 8
  %34 = getelementptr i8, ptr %32, i64 %33
  %35 = load i8, ptr %34, align 1
  %36 = sext i8 %35 to i32
  %37 = zext i32 %36 to i64
  %38 = getelementptr i8, ptr %31, i64 %37
  store i8 0, ptr %38, align 1
  br label %39

39:                                               ; preds = %30
  %40 = load i64, ptr %17, align 8
  %41 = add i64 %40, 1
  store i64 %41, ptr %17, align 8
  br label %24, !llvm.loop !13

42:                                               ; preds = %24
  %43 = load ptr, ptr %15, align 8
  %44 = getelementptr inbounds nuw %struct._tvbparse_wanted_t, ptr %43, i32 0, i32 1
  store ptr @cond_chars_common, ptr %44, align 8
  %45 = load i32, ptr %8, align 4
  %46 = load ptr, ptr %15, align 8
  %47 = getelementptr inbounds nuw %struct._tvbparse_wanted_t, ptr %46, i32 0, i32 0
  store i32 %45, ptr %47, align 8
  %48 = load ptr, ptr %16, align 8
  %49 = load ptr, ptr %15, align 8
  %50 = getelementptr inbounds nuw %struct._tvbparse_wanted_t, ptr %49, i32 0, i32 2
  store ptr %48, ptr %50, align 8
  %51 = load ptr, ptr %15, align 8
  %52 = getelementptr inbounds nuw %struct._tvbparse_wanted_t, ptr %51, i32 0, i32 3
  store i32 0, ptr %52, align 8
  %53 = load i32, ptr %9, align 4
  %54 = icmp ne i32 %53, 0
  br i1 %54, label %55, label %57

55:                                               ; preds = %42
  %56 = load i32, ptr %9, align 4
  br label %58

57:                                               ; preds = %42
  br label %58

58:                                               ; preds = %57, %55
  %59 = phi i32 [ %56, %55 ], [ 1, %57 ]
  %60 = load ptr, ptr %15, align 8
  %61 = getelementptr inbounds nuw %struct._tvbparse_wanted_t, ptr %60, i32 0, i32 4
  store i32 %59, ptr %61, align 4
  %62 = load i32, ptr %10, align 4
  %63 = icmp ne i32 %62, 0
  br i1 %63, label %64, label %66

64:                                               ; preds = %58
  %65 = load i32, ptr %10, align 4
  br label %67

66:                                               ; preds = %58
  br label %67

67:                                               ; preds = %66, %64
  %68 = phi i32 [ %65, %64 ], [ 1073741823, %66 ]
  %69 = load ptr, ptr %15, align 8
  %70 = getelementptr inbounds nuw %struct._tvbparse_wanted_t, ptr %69, i32 0, i32 5
  store i32 %68, ptr %70, align 8
  %71 = load ptr, ptr %12, align 8
  %72 = load ptr, ptr %15, align 8
  %73 = getelementptr inbounds nuw %struct._tvbparse_wanted_t, ptr %72, i32 0, i32 6
  store ptr %71, ptr %73, align 8
  %74 = load ptr, ptr %13, align 8
  %75 = load ptr, ptr %15, align 8
  %76 = getelementptr inbounds nuw %struct._tvbparse_wanted_t, ptr %75, i32 0, i32 7
  store ptr %74, ptr %76, align 8
  %77 = load ptr, ptr %14, align 8
  %78 = load ptr, ptr %15, align 8
  %79 = getelementptr inbounds nuw %struct._tvbparse_wanted_t, ptr %78, i32 0, i32 8
  store ptr %77, ptr %79, align 8
  %80 = load ptr, ptr %15, align 8
  call void @llvm.lifetime.end.p0(i64 8, ptr %17) #11
  call void @llvm.lifetime.end.p0(i64 8, ptr %16) #11
  call void @llvm.lifetime.end.p0(i64 8, ptr %15) #11
  ret ptr %80
}