; Function Attrs: null_pointer_is_valid sspstrong uwtable
define noalias noundef ptr @tvbparse_not_chars(i32 noundef %0, i32 noundef %1, i32 noundef %2, ptr noundef readonly captures(none) %3, ptr noundef %4, ptr noundef %5, ptr noundef %6) local_unnamed_addr #0 {
  %8 = tail call ptr @wmem_epan_scope()
  %9 = tail call noalias dereferenceable_or_null(80) ptr @wmem_alloc0(ptr noundef %8, i64 noundef 80) #11
  %10 = tail call ptr @wmem_epan_scope()
  %11 = tail call noalias dereferenceable_or_null(256) ptr @wmem_alloc(ptr noundef %10, i64 noundef 256) #11
  tail call void @llvm.memset.p0.i64(ptr noundef align 1 dereferenceable(256) %11, i8 noundef -1, i64 noundef 256, i1 noundef false) #12
  %12 = load i8, ptr %3, align 1
  %.not28 = icmp eq i8 %12, 0
  br i1 %.not28, label %._crit_edge, label %.lr.ph

.lr.ph:                                           ; preds = %7, %.lr.ph
  %13 = phi i8 [ %19, %.lr.ph ], [ %12, %7 ]
  %.029 = phi i64 [ %17, %.lr.ph ], [ 0, %7 ]
  %14 = sext i8 %13 to i64
  %15 = and i64 %14, 4294967295
  %16 = getelementptr i8, ptr %11, i64 %15
  store i8 0, ptr %16, align 1
  %17 = add i64 %.029, 1
  %18 = getelementptr i8, ptr %3, i64 %17
  %19 = load i8, ptr %18, align 1
  %.not = icmp eq i8 %19, 0
  br i1 %.not, label %._crit_edge, label %.lr.ph, !llvm.loop !10

._crit_edge:                                      ; preds = %.lr.ph, %7
  %20 = getelementptr inbounds nuw i8, ptr %9, i64 8
  store ptr @cond_chars_common, ptr %20, align 8
  store i32 %0, ptr %9, align 8
  %21 = getelementptr inbounds nuw i8, ptr %9, i64 16
  store ptr %11, ptr %21, align 8
  %22 = getelementptr inbounds nuw i8, ptr %9, i64 40
  store i32 0, ptr %22, align 8
  %23 = tail call i32 @llvm.umax.i32(i32 %1, i32 1)
  %24 = getelementptr inbounds nuw i8, ptr %9, i64 44
  store i32 %23, ptr %24, align 4
  %.not27 = icmp eq i32 %2, 0
  %25 = select i1 %.not27, i32 1073741823, i32 %2
  %26 = getelementptr inbounds nuw i8, ptr %9, i64 48
  store i32 %25, ptr %26, align 8
  %27 = getelementptr inbounds nuw i8, ptr %9, i64 56
  store ptr %4, ptr %27, align 8
  %28 = getelementptr inbounds nuw i8, ptr %9, i64 64
  store ptr %5, ptr %28, align 8
  %29 = getelementptr inbounds nuw i8, ptr %9, i64 72
  store ptr %6, ptr %29, align 8
  ret ptr %9
}